; ModuleID = '56/469.c'
source_filename = "56/469.c"
target datalayout = "e-m:e-p270:32:32-p271:32:32-p272:64:64-i64:64-f80:128-n8:16:32:64-S128"
target triple = "x86_64-pc-linux-gnu"

@.str = private unnamed_addr constant [3 x i8] c"%d\00", align 1
@.str.1 = private unnamed_addr constant [4 x i8] c"%d\0A\00", align 1

; Function Attrs: noinline nounwind uwtable
define dso_local i32 @main(i32 %0, i8** %1) #0 {
  %3 = alloca i32, align 4
  %4 = alloca i32, align 4
  %5 = alloca i8**, align 8
  %6 = alloca i32, align 4
  %7 = alloca i32, align 4
  %8 = alloca i32, align 4
  %9 = alloca i32, align 4
  %10 = alloca i32, align 4
  %11 = alloca i32, align 4
  %12 = alloca i32, align 4
  store i32 0, i32* %3, align 4
  store i32 %0, i32* %4, align 4
  store i8** %1, i8*** %5, align 8
  %13 = call i32 (i8*, ...) @__isoc99_scanf(i8* getelementptr inbounds ([3 x i8], [3 x i8]* @.str, i64 0, i64 0), i32* %6)
  %14 = load i32, i32* %6, align 4
  %15 = sdiv i32 %14, 10000
  store i32 %15, i32* %7, align 4
  %16 = load i32, i32* %6, align 4
  %17 = load i32, i32* %7, align 4
  %18 = mul nsw i32 10000, %17
  %19 = sub nsw i32 %16, %18
  %20 = sdiv i32 %19, 1000
  store i32 %20, i32* %8, align 4
  %21 = load i32, i32* %6, align 4
  %22 = load i32, i32* %7, align 4
  %23 = mul nsw i32 10000, %22
  %24 = sub nsw i32 %21, %23
  %25 = load i32, i32* %8, align 4
  %26 = mul nsw i32 1000, %25
  %27 = sub nsw i32 %24, %26
  %28 = sdiv i32 %27, 100
  store i32 %28, i32* %9, align 4
  %29 = load i32, i32* %6, align 4
  %30 = load i32, i32* %7, align 4
  %31 = mul nsw i32 10000, %30
  %32 = sub nsw i32 %29, %31
  %33 = load i32, i32* %8, align 4
  %34 = mul nsw i32 1000, %33
  %35 = sub nsw i32 %32, %34
  %36 = load i32, i32* %9, align 4
  %37 = mul nsw i32 100, %36
  %38 = sub nsw i32 %35, %37
  %39 = sdiv i32 %38, 10
  store i32 %39, i32* %10, align 4
  %40 = load i32, i32* %6, align 4
  %41 = load i32, i32* %7, align 4
  %42 = mul nsw i32 10000, %41
  %43 = sub nsw i32 %40, %42
  %44 = load i32, i32* %8, align 4
  %45 = mul nsw i32 1000, %44
  %46 = sub nsw i32 %43, %45
  %47 = load i32, i32* %9, align 4
  %48 = mul nsw i32 100, %47
  %49 = sub nsw i32 %46, %48
  %50 = load i32, i32* %10, align 4
  %51 = mul nsw i32 %50, 10
  %52 = sub nsw i32 %49, %51
  %53 = sdiv i32 %52, 1
  store i32 %53, i32* %11, align 4
  %54 = load i32, i32* %7, align 4
  %55 = icmp ne i32 %54, 0
  br i1 %55, label %56, label %70

56:                                               ; preds = %2
  %57 = load i32, i32* %11, align 4
  %58 = mul nsw i32 %57, 10000
  %59 = load i32, i32* %10, align 4
  %60 = mul nsw i32 %59, 1000
  %61 = add nsw i32 %58, %60
  %62 = load i32, i32* %9, align 4
  %63 = mul nsw i32 %62, 100
  %64 = add nsw i32 %61, %63
  %65 = load i32, i32* %8, align 4
  %66 = mul nsw i32 %65, 10
  %67 = add nsw i32 %64, %66
  %68 = load i32, i32* %7, align 4
  %69 = add nsw i32 %67, %68
  store i32 %69, i32* %12, align 4
  br label %108

70:                                               ; preds = %2
  %71 = load i32, i32* %8, align 4
  %72 = icmp ne i32 %71, 0
  br i1 %72, label %73, label %84

73:                                               ; preds = %70
  %74 = load i32, i32* %11, align 4
  %75 = mul nsw i32 %74, 1000
  %76 = load i32, i32* %10, align 4
  %77 = mul nsw i32 %76, 100
  %78 = add nsw i32 %75, %77
  %79 = load i32, i32* %9, align 4
  %80 = mul nsw i32 %79, 10
  %81 = add nsw i32 %78, %80
  %82 = load i32, i32* %8, align 4
  %83 = add nsw i32 %81, %82
  store i32 %83, i32* %12, align 4
  br label %107

84:                                               ; preds = %70
  %85 = load i32, i32* %9, align 4
  %86 = icmp ne i32 %85, 0
  br i1 %86, label %87, label %95

87:                                               ; preds = %84
  %88 = load i32, i32* %11, align 4
  %89 = mul nsw i32 %88, 100
  %90 = load i32, i32* %10, align 4
  %91 = mul nsw i32 %90, 10
  %92 = add nsw i32 %89, %91
  %93 = load i32, i32* %9, align 4
  %94 = add nsw i32 %92, %93
  store i32 %94, i32* %12, align 4
  br label %106

95:                                               ; preds = %84
  %96 = load i32, i32* %10, align 4
  %97 = icmp ne i32 %96, 0
  br i1 %97, label %98, label %103

98:                                               ; preds = %95
  %99 = load i32, i32* %11, align 4
  %100 = mul nsw i32 %99, 10
  %101 = load i32, i32* %10, align 4
  %102 = add nsw i32 %100, %101
  store i32 %102, i32* %12, align 4
  br label %105

103:                                              ; preds = %95
  %104 = load i32, i32* %11, align 4
  store i32 %104, i32* %12, align 4
  br label %105

105:                                              ; preds = %103, %98
  br label %106

106:                                              ; preds = %105, %87
  br label %107

107:                                              ; preds = %106, %73
  br label %108

108:                                              ; preds = %107, %56
  %109 = load i32, i32* %12, align 4
  %110 = call i32 (i8*, ...) @printf(i8* getelementptr inbounds ([4 x i8], [4 x i8]* @.str.1, i64 0, i64 0), i32 %109)
  ret i32 0
}

declare dso_local i32 @__isoc99_scanf(i8*, ...) #1

declare dso_local i32 @printf(i8*, ...) #1


!llvm.module.flags = !{!0}
!llvm.ident = !{!1}

!0 = !{i32 1, !"wchar_size", i32 4}
!1 = !{!"clang version 10.0.0-4ubuntu1 "}
